target datalayout = "e-m:e-p270:32:32-p271:32:32-p272:64:64-i64:64-i128:128-f80:128-n8:16:32:64-S128"
target triple = "x86_64-pc-linux-gnu"

%struct.darktable_t = type { %struct.dt_codepath_t, i32, i32, ptr, ptr, ptr, ptr, ptr, ptr, ptr, ptr, ptr, ptr, ptr, ptr, ptr, ptr, ptr, ptr, ptr, ptr, ptr, ptr, ptr, ptr, ptr, ptr, ptr, ptr, ptr, [64 x %struct.dt_pthread_mutex_t], %struct.dt_pthread_mutex_t, %struct.dt_pthread_mutex_t, %struct.dt_pthread_mutex_t, %struct.dt_pthread_mutex_t, %struct.dt_pthread_mutex_t, ptr, ptr, ptr, ptr, ptr, ptr, ptr, ptr, ptr, ptr, ptr, ptr, ptr, %struct.dt_lua_state_t, ptr, double, ptr, i32, [47 x i32], i32, i32, ptr, ptr, %struct.dt_sys_resources_t, %struct.dt_backthumb_t, %struct.dt_gimp_t }
%struct.dt_codepath_t = type { i8, [3 x i8] }
%struct.dt_pthread_mutex_t = type { %union.pthread_mutex_t }
%union.pthread_mutex_t = type { %struct.__pthread_mutex_s }
%struct.__pthread_mutex_s = type { i32, i32, i32, i32, i32, i16, i16, %struct.__pthread_internal_list }
%struct.__pthread_internal_list = type { ptr, ptr }
%struct.dt_lua_state_t = type { i32 }
%struct.dt_sys_resources_t = type { i64, i64, ptr, ptr, i32 }
%struct.dt_backthumb_t = type { double, double, i32, i32, i32, i32 }
%struct.dt_gimp_t = type { i32, ptr, ptr, i32, i32 }
%struct.dt_gui_gtk_t = type { ptr, %struct.dt_gui_widgets_t, %struct.dt_gui_scrollbars_t, i32, ptr, i32, [39 x %struct._GdkRGBA], i32, i32, i32, i32, i32, double, double, double, double, ptr, double, double, double, double, i32, i32, [4096 x i8], i32, i32, i32, %struct.dt_pthread_mutex_t }
%struct.dt_gui_widgets_t = type { ptr, ptr, ptr, ptr, i32, i32, i32 }
%struct.dt_gui_scrollbars_t = type { ptr, ptr, i32 }
%struct._GdkRGBA = type { double, double, double, double }

@darktable = external global %struct.darktable_t, align 8
@.str.153 = private unnamed_addr constant [40 x i8] c"plugins/lighttable/tagging/nosuggestion\00", align 1

; Function Attrs: nounwind uwtable
define internal void @_toggle_suggestion_button_callback(ptr noundef %0, ptr noundef %1) #0 {
  %3 = alloca ptr, align 8
  %4 = alloca ptr, align 8
  %5 = alloca i32, align 4
  store ptr %0, ptr %3, align 8, !tbaa !156
  store ptr %1, ptr %4, align 8, !tbaa !6
  %6 = load ptr, ptr getelementptr inbounds nuw (%struct.darktable_t, ptr @darktable, i32 0, i32 14), align 8, !tbaa !158
  %7 = getelementptr inbounds nuw %struct.dt_gui_gtk_t, ptr %6, i32 0, i32 5
  %8 = load i32, ptr %7, align 8, !tbaa !159
  %9 = icmp ne i32 %8, 0
  br i1 %9, label %10, label %11

10:                                               ; preds = %2
  br label %19

11:                                               ; preds = %2
  call void @llvm.lifetime.start.p0(i64 4, ptr %5) #11
  %12 = call i32 @dt_conf_get_bool(ptr noundef @.str.153)
  %13 = icmp ne i32 %12, 0
  %14 = xor i1 %13, true
  %15 = zext i1 %14 to i32
  store i32 %15, ptr %5, align 4, !tbaa !31
  %16 = load i32, ptr %5, align 4, !tbaa !31
  call void @dt_conf_set_bool(ptr noundef @.str.153, i32 noundef %16)
  %17 = load ptr, ptr %4, align 8, !tbaa !6
  call void @_update_layout(ptr noundef %17)
  %18 = load ptr, ptr %4, align 8, !tbaa !6
  call void @_init_treeview(ptr noundef %18, i32 noundef 1)
  call void @llvm.lifetime.end.p0(i64 4, ptr %5) #11
  br label %19

19:                                               ; preds = %11, %10
  ret void
}