; Function Attrs: nounwind uwtable
define internal void @_toggle_suggestion_button_callback(ptr readnone captures(none) %0, ptr noundef %1) #1 {
  %3 = load ptr, ptr getelementptr inbounds nuw (i8, ptr @darktable, i64 104), align 8, !tbaa !125
  %4 = getelementptr inbounds nuw i8, ptr %3, i64 96
  %5 = load i32, ptr %4, align 8, !tbaa !126
  %.not = icmp eq i32 %5, 0
  br i1 %.not, label %6, label %10

6:                                                ; preds = %2
  %7 = tail call i32 @dt_conf_get_bool(ptr noundef nonnull @.str.153) #16
  %.not2 = icmp eq i32 %7, 0
  %8 = zext i1 %.not2 to i32
  tail call void @dt_conf_set_bool(ptr noundef nonnull @.str.153, i32 noundef %8) #16
  %9 = getelementptr i8, ptr %1, i64 280
  %.val = load ptr, ptr %9, align 8, !tbaa !6
  tail call fastcc void @_update_layout(ptr %.val)
  tail call fastcc void @_init_treeview(ptr noundef %1, i32 noundef 1)
  br label %10

10:                                               ; preds = %2, %6
  ret void
}